target datalayout = "e-m:e-p270:32:32-p271:32:32-p272:64:64-i64:64-i128:128-f80:128-n8:16:32:64-S128"
target triple = "x86_64-pc-linux-gnu"

%struct.ossl_cmp_msg_st = type { ptr, ptr, ptr, ptr, ptr, ptr }

@.str = private unnamed_addr constant [32 x i8] c"../openssl/crypto/cmp/cmp_msg.c\00", align 1

; Function Attrs: nounwind uwtable
define i32 @ossl_cmp_msg_set0_libctx(ptr noundef %0, ptr noundef %1, ptr noundef %2) #0 {
  %4 = alloca i32, align 4
  %5 = alloca ptr, align 8
  %6 = alloca ptr, align 8
  %7 = alloca ptr, align 8
  store ptr %0, ptr %5, align 8, !tbaa !10
  store ptr %1, ptr %6, align 8, !tbaa !3
  store ptr %2, ptr %7, align 8, !tbaa !8
  %8 = load ptr, ptr %5, align 8, !tbaa !10
  %9 = icmp ne ptr %8, null
  br i1 %9, label %10, label %33

10:                                               ; preds = %3
  %11 = load ptr, ptr %6, align 8, !tbaa !3
  %12 = load ptr, ptr %5, align 8, !tbaa !10
  %13 = getelementptr inbounds nuw %struct.ossl_cmp_msg_st, ptr %12, i32 0, i32 4
  store ptr %11, ptr %13, align 8, !tbaa !12
  %14 = load ptr, ptr %5, align 8, !tbaa !10
  %15 = getelementptr inbounds nuw %struct.ossl_cmp_msg_st, ptr %14, i32 0, i32 5
  %16 = load ptr, ptr %15, align 8, !tbaa !18
  call void @CRYPTO_free(ptr noundef %16, ptr noundef @.str, i32 noundef 54)
  %17 = load ptr, ptr %5, align 8, !tbaa !10
  %18 = getelementptr inbounds nuw %struct.ossl_cmp_msg_st, ptr %17, i32 0, i32 5
  store ptr null, ptr %18, align 8, !tbaa !18
  %19 = load ptr, ptr %7, align 8, !tbaa !8
  %20 = icmp ne ptr %19, null
  br i1 %20, label %21, label %32

21:                                               ; preds = %10
  %22 = load ptr, ptr %7, align 8, !tbaa !8
  %23 = call noalias ptr @CRYPTO_strdup(ptr noundef %22, ptr noundef @.str, i32 noundef 57)
  %24 = load ptr, ptr %5, align 8, !tbaa !10
  %25 = getelementptr inbounds nuw %struct.ossl_cmp_msg_st, ptr %24, i32 0, i32 5
  store ptr %23, ptr %25, align 8, !tbaa !18
  %26 = load ptr, ptr %5, align 8, !tbaa !10
  %27 = getelementptr inbounds nuw %struct.ossl_cmp_msg_st, ptr %26, i32 0, i32 5
  %28 = load ptr, ptr %27, align 8, !tbaa !18
  %29 = icmp eq ptr %28, null
  br i1 %29, label %30, label %31

30:                                               ; preds = %21
  store i32 0, ptr %4, align 4
  br label %34

31:                                               ; preds = %21
  br label %32

32:                                               ; preds = %31, %10
  br label %33

33:                                               ; preds = %32, %3
  store i32 1, ptr %4, align 4
  br label %34

34:                                               ; preds = %33, %30
  %35 = load i32, ptr %4, align 4
  ret i32 %35
}